Certificate:
    Data:
        Version: 3 (0x2)
        Serial Number:
            07:b1:a4:f3:47:67:cb:e5:be:1e:33:a8:7b:73:74:fd:9a:d8:63:c3
        Signature Algorithm: sha1WithRSAEncryption
        Issuer: C=AU, O=Dodgy Brothers, CN=Dodgy CA
        Validity
            Not Before: Feb  2 19:41:45 2022 GMT
            Not After : Feb  1 19:41:45 2025 GMT
        Subject: C=AU, O=Dodgy Brothers, CN=Dodgy CA
        Subject Public Key Info:
            Public Key Algorithm: rsaEncryption
                Public-Key: (2048 bit)
                Modulus:
                    00:96:9d:a4:3d:00:4b:1c:5f:c6:cb:dd:8f:d2:31:
                    b2:88:15:cc:c4:86:2c:5c:e2:69:8b:84:f4:a7:a3:
                    53:df:91:e3:bf:51:89:fb:f0:7c:10:0d:3b:ad:ac:
                    35:62:75:f5:7f:ff:f4:6e:54:8f:05:a6:92:23:b3:
                    9f:59:39:d0:39:18:b0:10:40:de:62:73:8a:4e:b0:
                    8e:df:dc:e7:c9:41:22:54:84:80:08:29:bc:35:3c:
                    86:df:30:de:dd:b4:24:ff:7e:62:a5:c0:7a:e8:2a:
                    16:3f:d6:97:da:c5:42:db:2f:69:64:91:cb:08:d7:
                    56:5a:79:7f:1b:84:41:e9:4d:9d:77:09:10:a8:6c:
                    29:33:44:c6:c0:54:65:e6:e8:e3:f2:75:05:6a:64:
                    95:6c:c0:f4:fd:25:61:6e:48:36:f0:c0:03:07:05:
                    d6:7c:e5:11:fd:18:e8:4a:2d:d3:72:0c:37:28:36:
                    31:31:38:85:e8:71:8d:d8:02:49:c8:bc:19:89:c5:
                    8a:b1:3f:a2:35:ea:aa:90:1c:64:68:7b:af:67:6a:
                    5a:06:54:0f:50:e1:f9:b4:f6:be:3a:d4:ce:3f:1e:
                    4c:7d:c6:77:32:3e:a2:58:ed:db:dd:74:d8:92:14:
                    6a:a8:f7:cb:34:58:91:a8:7c:14:b1:7d:08:b3:4d:
                    b1:47
                Exponent: 65537 (0x10001)
        X509v3 extensions:
            X509v3 Subject Key Identifier: 
                B4:11:33:F1:D7:E2:5E:F7:53:9E:20:22:10:4F:86:06:BF:1F:C9:5E
            X509v3 Authority Key Identifier: 
                keyid:B4:11:33:F1:D7:E2:5E:F7:53:9E:20:22:10:4F:86:06:BF:1F:C9:5E
                DirName:/C=AU/O=Dodgy Brothers/CN=Dodgy CA
                serial:07:B1:A4:F3:47:67:CB:E5:BE:1E:33:A8:7B:73:74:FD:9A:D8:63:C3
            X509v3 Basic Constraints: critical
                CA:TRUE, pathlen:1
            X509v3 Key Usage: 
                Certificate Sign, CRL Sign
            X509v3 Issuer Alternative Name: 
                <EMPTY>

    Signature Algorithm: sha1WithRSAEncryption
    Signature Value:
        62:5f:63:e4:d2:73:bc:d5:ae:29:16:0a:6f:5f:64:52:20:25:
        d3:30:30:6d:1c:18:ac:7c:65:61:15:88:30:15:f2:44:82:4c:
        0b:60:50:49:40:2c:b3:ab:35:06:91:e8:25:54:9d:74:61:de:
        5f:f9:03:7f:95:af:40:9e:37:79:e0:1e:94:9f:d1:42:d9:29:
        9d:49:f1:70:bd:f6:58:6e:90:98:61:52:19:14:21:fc:f3:cd:
        66:3f:6f:93:d4:13:35:6b:c3:e2:f1:5b:54:c7:84:c6:17:4a:
        ec:80:41:c4:27:cc:a3:08:c2:70:2b:31:98:9a:50:69:fe:ce:
        8e:e1:52:7a:9f:54:5a:54:52:78:01:05:59:a2:09:d6:0e:7c:
        bd:25:09:13:d0:10:a5:84:11:34:ce:ad:14:91:3d:0b:e9:93:
        4b:c3:c0:10:2c:5c:c8:57:70:ae:7a:d9:14:cb:26:44:57:c8:
        2a:74:9f:ff:bb:88:10:01:be:66:e1:6f:fa:fc:c6:6f:5e:2c:
        b0:c5:7a:be:cd:03:96:c2:6f:5d:99:10:5d:29:cb:da:46:37:
        67:28:b5:9f:c6:1b:8b:5e:65:f8:71:d7:38:7f:9e:dc:6d:ba:
        70:0b:c2:04:79:43:70:a9:2c:3a:b9:04:04:24:83:67:df:1f:
        ae:f5:36:dc
-----BEGIN CERTIFICATE-----
MIIDxTCCAq2gAwIBAgIUB7Gk80dny+W+HjOoe3N0/ZrYY8MwDQYJKoZIhvcNAQEF
BQAwOTELMAkGA1UEBhMCQVUxFzAVBgNVBAoMDkRvZGd5IEJyb3RoZXJzMREwDwYD
VQQDDAhEb2RneSBDQTAeFw0yMjAyMDIxOTQxNDVaFw0yNTAyMDExOTQxNDVaMDkx
CzAJBgNVBAYTAkFVMRcwFQYDVQQKDA5Eb2RneSBCcm90aGVyczERMA8GA1UEAwwI
RG9kZ3kgQ0EwggEiMA0GCSqGSIb3DQEBAQUAA4IBDwAwggEKAoIBAQCWnaQ9AEsc
X8bL3Y/SMbKIFczEhixc4mmLhPSno1PfkeO/UYn78HwQDTutrDVidfV///RuVI8F
ppIjs59ZOdA5GLAQQN5ic4pOsI7f3OfJQSJUhIAIKbw1PIbfMN7dtCT/fmKlwHro
KhY/1pfaxULbL2lkkcsI11ZaeX8bhEHpTZ13CRCobCkzRMbAVGXm6OPydQVqZJVs
wPT9JWFuSDbwwAMHBdZ85RH9GOhKLdNyDDcoNjExOIXocY3YAknIvBmJxYqxP6I1
6qqQHGRoe69naloGVA9Q4fm09r461M4/Hkx9xncyPqJY7dvddNiSFGqo98s0WJGo
fBSxfQizTbFHAgMBAAGjgcQwgcEwHQYDVR0OBBYEFLQRM/HX4l73U54gIhBPhga/
H8leMHQGA1UdIwRtMGuAFLQRM/HX4l73U54gIhBPhga/H8leoT2kOzA5MQswCQYD
VQQGEwJBVTEXMBUGA1UECgwORG9kZ3kgQnJvdGhlcnMxETAPBgNVBAMMCERvZGd5
IENBghQHsaTzR2fL5b4eM6h7c3T9mthjwzASBgNVHRMBAf8ECDAGAQH/AgEBMAsG
A1UdDwQEAwIBBjAJBgNVHRIEAjAAMA0GCSqGSIb3DQEBBQUAA4IBAQBiX2Pk0nO8
1a4pFgpvX2RSICXTMDBtHBisfGVhFYgwFfJEgkwLYFBJQCyzqzUGkeglVJ10Yd5f
+QN/la9Anjd54B6Un9FC2SmdSfFwvfZYbpCYYVIZFCH8881mP2+T1BM1a8Pi8VtU
x4TGF0rsgEHEJ8yjCMJwKzGYmlBp/s6O4VJ6n1RaVFJ4AQVZognWDny9JQkT0BCl
hBE0zq0UkT0L6ZNLw8AQLFzIV3CuetkUyyZEV8gqdJ//u4gQAb5m4W/6/MZvXiyw
xXq+zQOWwm9dmRBdKcvaRjdnKLWfxhuLXmX4cdc4f57cbbpwC8IEeUNwqSw6uQQE
JINn3x+u9Tbc
-----END CERTIFICATE-----
