Certificate:
    Data:
        Version: 3 (0x2)
        Serial Number:
            2c:08:18:f0:18:3f:8c:19:1f:a0:65:2c:b4:37:26:43:23:5a:60:39
        Signature Algorithm: SM2-with-SM3
        Issuer: C=CN, ST=LN, L=Shenyang, O=Test Org, OU=Test OU, CN=Test SM2 CA
        Validity
            Not Before: Feb  2 19:41:45 2022 GMT
            Not After : Feb  2 19:41:45 2023 GMT
        Subject: C=CN, ST=Liaoning, L=Shenyang, O=Tet, OU=Tet, CN=oo/emailAddress=oo@oo.oo
        Subject Public Key Info:
            Public Key Algorithm: sm2
                Public-Key: (256 bit)
                pub:
                    04:d4:d8:dd:3a:99:5d:72:34:e4:b9:9a:5d:18:33:
                    72:1c:09:e1:2b:d7:01:d9:16:7b:8c:09:85:ce:de:
                    e3:80:4b:3d:38:74:a0:ad:bd:dc:ae:3c:fe:a8:66:
                    5f:ab:22:79:03:26:6e:95:0e:e0:74:04:73:6f:51:
                    f9:e6:3b:f0:e6
                ASN1 OID: SM2
        X509v3 extensions:
            X509v3 Subject Key Identifier: 
                F6:52:D4:54:D4:26:10:46:F6:AA:D3:B4:8C:E6:F7:5A:BC:B0:2A:B3
            X509v3 Authority Key Identifier: 
                keyid:C5:8D:C5:AE:FF:32:60:49:9E:52:29:49:54:E5:5C:78:FF:45:B9:74
                DirName:/C=CN/ST=LN/L=Shenyang/O=Test Org/OU=Test OU/CN=Test SM2 CA
                serial:E9:64:A4:3A:52:AE:65:5B
            X509v3 Basic Constraints: critical
                CA:TRUE, pathlen:1
            X509v3 Key Usage: 
                Certificate Sign, CRL Sign
            X509v3 Issuer Alternative Name: 
                <EMPTY>

    Signature Algorithm: SM2-with-SM3
    Signature Value:
        30:45:02:20:25:15:49:d4:f9:36:69:2d:e8:4c:bb:88:b0:cc:
        23:9d:3b:a5:06:12:83:8d:69:b8:dc:d9:d4:54:2c:83:94:21:
        02:21:00:80:52:4d:c0:d9:41:7d:7a:61:ac:65:d9:a4:4a:0d:
        c4:7c:a5:ef:19:bc:9e:e4:db:1a:b6:57:38:c7:c3:1d:e8
-----BEGIN CERTIFICATE-----
MIICzDCCAnKgAwIBAgIULAgY8Bg/jBkfoGUstDcmQyNaYDkwCgYIKoEcz1UBg3Uw
aDELMAkGA1UEBhMCQ04xCzAJBgNVBAgMAkxOMREwDwYDVQQHDAhTaGVueWFuZzER
MA8GA1UECgwIVGVzdCBPcmcxEDAOBgNVBAsMB1Rlc3QgT1UxFDASBgNVBAMMC1Rl
c3QgU00yIENBMB4XDTIyMDIwMjE5NDE0NVoXDTIzMDIwMjE5NDE0NVowdTELMAkG
A1UEBhMCQ04xETAPBgNVBAgMCExpYW9uaW5nMREwDwYDVQQHDAhTaGVueWFuZzEM
MAoGA1UECgwDVGV0MQwwCgYDVQQLDANUZXQxCzAJBgNVBAMMAm9vMRcwFQYJKoZI
hvcNAQkBFghvb0Bvby5vbzBaMBQGCCqBHM9VAYItBggqgRzPVQGCLQNCAATU2N06
mV1yNOS5ml0YM3IcCeEr1wHZFnuMCYXO3uOASz04dKCtvdyuPP6oZl+rInkDJm6V
DuB0BHNvUfnmO/Dmo4HrMIHoMB0GA1UdDgQWBBT2UtRU1CYQRvaq07SM5vdavLAq
szCBmgYDVR0jBIGSMIGPgBTFjcWu/zJgSZ5SKUlU5Vx4/0W5dKFspGowaDELMAkG
A1UEBhMCQ04xCzAJBgNVBAgMAkxOMREwDwYDVQQHDAhTaGVueWFuZzERMA8GA1UE
CgwIVGVzdCBPcmcxEDAOBgNVBAsMB1Rlc3QgT1UxFDASBgNVBAMMC1Rlc3QgU00y
IENBggkA6WSkOlKuZVswEgYDVR0TAQH/BAgwBgEB/wIBATALBgNVHQ8EBAMCAQYw
CQYDVR0SBAIwADAKBggqgRzPVQGDdQNIADBFAiAlFUnU+TZpLehMu4iwzCOdO6UG
EoONabjc2dRULIOUIQIhAIBSTcDZQX16Yaxl2aRKDcR8pe8ZvJ7k2xq2VzjHwx3o
-----END CERTIFICATE-----
