Certificate:
    Data:
        Version: 3 (0x2)
        Serial Number:
            2c:08:18:f0:18:3f:8c:19:1f:a0:65:2c:b4:37:26:43:23:5a:60:3e
        Signature Algorithm: sha1WithRSAEncryption
        Issuer: C=AU, O=Dodgy Brothers, CN=Dodgy CA
        Validity
            Not Before: Feb  2 19:41:47 2022 GMT
            Not After : Feb  2 19:41:47 2023 GMT
        Subject: C=AU, O=Dodgy Brothers, CN=Brother 1, CN=nextupdate_invalid
        Subject Public Key Info:
            Public Key Algorithm: rsaEncryption
                Public-Key: (2048 bit)
                Modulus:
                    00:be:95:86:fa:71:4c:6a:ea:51:98:50:4b:99:a1:
                    2c:66:15:f3:60:f3:e1:ff:69:fb:ce:48:01:1d:fe:
                    e1:2c:38:b0:e3:bd:8f:4b:48:a7:7e:3a:c6:73:e3:
                    ab:bf:e1:da:6e:96:f5:fe:c3:e4:b4:a8:ad:bc:56:
                    34:d4:96:25:74:27:c3:10:db:35:10:25:1c:8e:4b:
                    81:9b:fb:42:04:7c:6f:3d:e2:38:6c:0e:e4:2e:8e:
                    2a:18:6d:30:cd:67:2a:23:6b:37:cf:05:9f:cc:b7:
                    59:58:7f:ba:c4:0a:3f:8c:a4:ad:cb:98:9c:c0:f2:
                    8f:69:67:0f:c1:4e:33:cf:fc:85:5e:bb:5e:cf:93:
                    b0:cf:d9:f4:52:79:87:b1:f8:4d:15:68:65:d5:b7:
                    19:08:63:7f:5e:b1:34:ad:05:8f:5a:f0:e4:e1:8f:
                    25:f2:5c:5c:61:95:b0:56:2d:31:2b:08:65:79:e5:
                    b1:3b:9d:3e:b9:52:4b:ac:5d:c4:58:66:85:8d:81:
                    b3:04:28:f4:3f:2f:ac:92:01:62:d5:fd:8e:0b:da:
                    02:0c:7a:c7:6e:09:1c:ac:1c:b2:4c:d7:54:b8:26:
                    33:b2:5f:14:f3:b1:f9:3d:62:4d:40:99:6b:b6:e7:
                    89:58:97:d6:d4:4d:ea:4b:68:52:f3:3c:a8:b1:35:
                    88:db
                Exponent: 65537 (0x10001)
        X509v3 extensions:
            X509v3 Subject Key Identifier: 
                A1:DF:33:C3:CF:3E:53:41:A7:68:44:CC:AA:19:E1:84:C9:0D:BC:C6
            X509v3 Authority Key Identifier: 
                keyid:B4:11:33:F1:D7:E2:5E:F7:53:9E:20:22:10:4F:86:06:BF:1F:C9:5E
                DirName:/C=AU/O=Dodgy Brothers/CN=Dodgy CA
                serial:07:B1:A4:F3:47:67:CB:E5:BE:1E:33:A8:7B:73:74:FD:9A:D8:63:C3
            X509v3 Basic Constraints: critical
                CA:TRUE, pathlen:1
            X509v3 Key Usage: 
                Certificate Sign, CRL Sign
            X509v3 Issuer Alternative Name: 
                <EMPTY>

    Signature Algorithm: sha1WithRSAEncryption
    Signature Value:
        2d:2a:95:bd:d7:e2:53:4c:03:88:97:c1:da:bb:29:a2:d8:85:
        e0:42:a1:ce:33:15:7e:38:7d:fc:c5:44:a1:89:01:d3:5b:85:
        33:0f:d2:85:92:12:23:2f:e4:60:81:fe:9c:71:71:d5:26:ad:
        76:39:29:30:73:d7:94:be:a1:8b:69:11:6f:49:47:58:2c:24:
        b2:f4:f1:9e:d2:57:86:fb:eb:32:b0:a9:4f:f5:24:f7:83:61:
        bf:4d:e6:ec:97:7c:c6:31:82:c4:6e:f5:e4:95:0b:e4:72:7a:
        ba:c3:b7:1e:46:9a:43:05:a4:f3:8f:39:4b:66:88:86:4c:f4:
        c0:71:7e:ab:b3:4b:36:0d:3b:18:bd:c2:aa:3b:b7:b8:9f:ef:
        84:0b:e4:b2:5f:b2:4b:63:23:23:4a:29:47:4f:81:48:ce:43:
        2d:97:89:b5:e0:05:54:e5:e8:2f:1c:3e:96:d8:69:73:d5:e9:
        42:d5:6a:de:c5:d9:ec:db:25:72:e5:0d:d8:78:b8:82:3a:15:
        91:af:f7:e3:3c:2d:a1:3a:ea:44:3e:7c:61:44:18:d2:54:93:
        ef:1c:09:62:c1:7f:d5:4a:02:a7:9d:e2:04:b1:ed:88:1a:5c:
        ef:eb:8d:a1:8a:4b:32:d4:71:74:64:35:df:d8:61:50:8f:fd:
        48:62:ca:8a
-----BEGIN CERTIFICATE-----
MIID4zCCAsugAwIBAgIULAgY8Bg/jBkfoGUstDcmQyNaYD4wDQYJKoZIhvcNAQEF
BQAwOTELMAkGA1UEBhMCQVUxFzAVBgNVBAoMDkRvZGd5IEJyb3RoZXJzMREwDwYD
VQQDDAhEb2RneSBDQTAeFw0yMjAyMDIxOTQxNDdaFw0yMzAyMDIxOTQxNDdaMFcx
CzAJBgNVBAYTAkFVMRcwFQYDVQQKDA5Eb2RneSBCcm90aGVyczESMBAGA1UEAwwJ
QnJvdGhlciAxMRswGQYDVQQDDBJuZXh0dXBkYXRlX2ludmFsaWQwggEiMA0GCSqG
SIb3DQEBAQUAA4IBDwAwggEKAoIBAQC+lYb6cUxq6lGYUEuZoSxmFfNg8+H/afvO
SAEd/uEsOLDjvY9LSKd+OsZz46u/4dpulvX+w+S0qK28VjTUliV0J8MQ2zUQJRyO
S4Gb+0IEfG894jhsDuQujioYbTDNZyojazfPBZ/Mt1lYf7rECj+MpK3LmJzA8o9p
Zw/BTjPP/IVeu17Pk7DP2fRSeYex+E0VaGXVtxkIY39esTStBY9a8OThjyXyXFxh
lbBWLTErCGV55bE7nT65UkusXcRYZoWNgbMEKPQ/L6ySAWLV/Y4L2gIMesduCRys
HLJM11S4JjOyXxTzsfk9Yk1AmWu254lYl9bUTepLaFLzPKixNYjbAgMBAAGjgcQw
gcEwHQYDVR0OBBYEFKHfM8PPPlNBp2hEzKoZ4YTJDbzGMHQGA1UdIwRtMGuAFLQR
M/HX4l73U54gIhBPhga/H8leoT2kOzA5MQswCQYDVQQGEwJBVTEXMBUGA1UECgwO
RG9kZ3kgQnJvdGhlcnMxETAPBgNVBAMMCERvZGd5IENBghQHsaTzR2fL5b4eM6h7
c3T9mthjwzASBgNVHRMBAf8ECDAGAQH/AgEBMAsGA1UdDwQEAwIBBjAJBgNVHRIE
AjAAMA0GCSqGSIb3DQEBBQUAA4IBAQAtKpW91+JTTAOIl8Hauymi2IXgQqHOMxV+
OH38xUShiQHTW4UzD9KFkhIjL+Rggf6ccXHVJq12OSkwc9eUvqGLaRFvSUdYLCSy
9PGe0leG++sysKlP9ST3g2G/Tebsl3zGMYLEbvXklQvkcnq6w7ceRppDBaTzjzlL
ZoiGTPTAcX6rs0s2DTsYvcKqO7e4n++EC+SyX7JLYyMjSilHT4FIzkMtl4m14AVU
5egvHD6W2Glz1elC1Wrexdns2yVy5Q3YeLiCOhWRr/fjPC2hOupEPnxhRBjSVJPv
HAliwX/VSgKnneIEse2IGlzv642hiksy1HF0ZDXf2GFQj/1IYsqK
-----END CERTIFICATE-----
