Certificate:
    Data:
        Version: 3 (0x2)
        Serial Number:
            2c:08:18:f0:18:3f:8c:19:1f:a0:65:2c:b4:37:26:43:23:5a:60:41
        Signature Algorithm: sha1WithRSAEncryption
        Issuer: C=AU, O=Dodgy Brothers, CN=Dodgy CA
        Validity
            Not Before: Feb  2 19:41:47 2022 GMT
            Not After : Feb  2 19:41:47 2023 GMT
        Subject: C=AU, O=Dodgy Brothers, CN=Brother 1, CN=both_utctime
        Subject Public Key Info:
            Public Key Algorithm: rsaEncryption
                Public-Key: (2048 bit)
                Modulus:
                    00:be:95:86:fa:71:4c:6a:ea:51:98:50:4b:99:a1:
                    2c:66:15:f3:60:f3:e1:ff:69:fb:ce:48:01:1d:fe:
                    e1:2c:38:b0:e3:bd:8f:4b:48:a7:7e:3a:c6:73:e3:
                    ab:bf:e1:da:6e:96:f5:fe:c3:e4:b4:a8:ad:bc:56:
                    34:d4:96:25:74:27:c3:10:db:35:10:25:1c:8e:4b:
                    81:9b:fb:42:04:7c:6f:3d:e2:38:6c:0e:e4:2e:8e:
                    2a:18:6d:30:cd:67:2a:23:6b:37:cf:05:9f:cc:b7:
                    59:58:7f:ba:c4:0a:3f:8c:a4:ad:cb:98:9c:c0:f2:
                    8f:69:67:0f:c1:4e:33:cf:fc:85:5e:bb:5e:cf:93:
                    b0:cf:d9:f4:52:79:87:b1:f8:4d:15:68:65:d5:b7:
                    19:08:63:7f:5e:b1:34:ad:05:8f:5a:f0:e4:e1:8f:
                    25:f2:5c:5c:61:95:b0:56:2d:31:2b:08:65:79:e5:
                    b1:3b:9d:3e:b9:52:4b:ac:5d:c4:58:66:85:8d:81:
                    b3:04:28:f4:3f:2f:ac:92:01:62:d5:fd:8e:0b:da:
                    02:0c:7a:c7:6e:09:1c:ac:1c:b2:4c:d7:54:b8:26:
                    33:b2:5f:14:f3:b1:f9:3d:62:4d:40:99:6b:b6:e7:
                    89:58:97:d6:d4:4d:ea:4b:68:52:f3:3c:a8:b1:35:
                    88:db
                Exponent: 65537 (0x10001)
        X509v3 extensions:
            X509v3 Subject Key Identifier: 
                A1:DF:33:C3:CF:3E:53:41:A7:68:44:CC:AA:19:E1:84:C9:0D:BC:C6
            X509v3 Authority Key Identifier: 
                keyid:B4:11:33:F1:D7:E2:5E:F7:53:9E:20:22:10:4F:86:06:BF:1F:C9:5E
                DirName:/C=AU/O=Dodgy Brothers/CN=Dodgy CA
                serial:07:B1:A4:F3:47:67:CB:E5:BE:1E:33:A8:7B:73:74:FD:9A:D8:63:C3
            X509v3 Basic Constraints: critical
                CA:TRUE, pathlen:1
            X509v3 Key Usage: 
                Certificate Sign, CRL Sign
            X509v3 Issuer Alternative Name: 
                <EMPTY>

    Signature Algorithm: sha1WithRSAEncryption
    Signature Value:
        27:b7:69:5c:37:2f:10:13:5c:3d:c5:e6:98:8a:e9:2b:ed:fd:
        b5:c8:de:0a:c3:66:f3:7e:6b:6a:b4:d7:af:b4:38:72:f8:f7:
        02:81:ab:03:8c:2e:33:c8:54:e3:70:69:c5:17:7f:26:70:d9:
        50:38:c9:5a:76:45:e4:c6:43:28:47:6f:95:18:fe:e0:26:c8:
        5a:b4:72:dd:3d:12:41:95:99:4b:15:30:19:0f:32:72:6c:00:
        9e:71:4f:0b:a7:06:4b:fb:f6:62:91:e1:ab:fe:56:19:5f:60:
        a2:78:e0:51:bf:31:7d:26:06:68:59:57:9b:ed:d7:7f:84:9f:
        de:32:dc:f3:98:52:d1:34:2c:b6:6a:a5:a2:01:fc:09:83:47:
        8f:e2:45:f2:d0:07:d7:d3:ea:e8:ca:6f:1d:14:a5:89:f2:89:
        aa:a7:5b:a7:8d:ec:35:f7:0c:70:b3:07:5a:28:02:13:ad:a2:
        43:9c:e2:1f:95:5c:cc:40:ba:f3:57:67:f9:fb:09:53:50:ab:
        b0:ca:2f:3e:95:fc:82:07:74:47:06:77:1b:94:25:d4:53:1a:
        a8:64:a2:a4:4c:5a:45:30:28:4d:78:c0:7f:84:7c:ad:56:82:
        31:c5:a8:5d:7f:5e:55:78:7a:c8:15:4c:c8:d8:79:e5:b5:0e:
        db:1d:a8:0e
-----BEGIN CERTIFICATE-----
MIID3TCCAsWgAwIBAgIULAgY8Bg/jBkfoGUstDcmQyNaYEEwDQYJKoZIhvcNAQEF
BQAwOTELMAkGA1UEBhMCQVUxFzAVBgNVBAoMDkRvZGd5IEJyb3RoZXJzMREwDwYD
VQQDDAhEb2RneSBDQTAeFw0yMjAyMDIxOTQxNDdaFw0yMzAyMDIxOTQxNDdaMFEx
CzAJBgNVBAYTAkFVMRcwFQYDVQQKDA5Eb2RneSBCcm90aGVyczESMBAGA1UEAwwJ
QnJvdGhlciAxMRUwEwYDVQQDDAxib3RoX3V0Y3RpbWUwggEiMA0GCSqGSIb3DQEB
AQUAA4IBDwAwggEKAoIBAQC+lYb6cUxq6lGYUEuZoSxmFfNg8+H/afvOSAEd/uEs
OLDjvY9LSKd+OsZz46u/4dpulvX+w+S0qK28VjTUliV0J8MQ2zUQJRyOS4Gb+0IE
fG894jhsDuQujioYbTDNZyojazfPBZ/Mt1lYf7rECj+MpK3LmJzA8o9pZw/BTjPP
/IVeu17Pk7DP2fRSeYex+E0VaGXVtxkIY39esTStBY9a8OThjyXyXFxhlbBWLTEr
CGV55bE7nT65UkusXcRYZoWNgbMEKPQ/L6ySAWLV/Y4L2gIMesduCRysHLJM11S4
JjOyXxTzsfk9Yk1AmWu254lYl9bUTepLaFLzPKixNYjbAgMBAAGjgcQwgcEwHQYD
VR0OBBYEFKHfM8PPPlNBp2hEzKoZ4YTJDbzGMHQGA1UdIwRtMGuAFLQRM/HX4l73
U54gIhBPhga/H8leoT2kOzA5MQswCQYDVQQGEwJBVTEXMBUGA1UECgwORG9kZ3kg
QnJvdGhlcnMxETAPBgNVBAMMCERvZGd5IENBghQHsaTzR2fL5b4eM6h7c3T9mthj
wzASBgNVHRMBAf8ECDAGAQH/AgEBMAsGA1UdDwQEAwIBBjAJBgNVHRIEAjAAMA0G
CSqGSIb3DQEBBQUAA4IBAQAnt2lcNy8QE1w9xeaYiukr7f21yN4Kw2bzfmtqtNev
tDhy+PcCgasDjC4zyFTjcGnFF38mcNlQOMladkXkxkMoR2+VGP7gJshatHLdPRJB
lZlLFTAZDzJybACecU8LpwZL+/ZikeGr/lYZX2CieOBRvzF9JgZoWVeb7dd/hJ/e
MtzzmFLRNCy2aqWiAfwJg0eP4kXy0AfX0+roym8dFKWJ8omqp1unjew19wxwswda
KAITraJDnOIflVzMQLrzV2f5+wlTUKuwyi8+lfyCB3RHBncblCXUUxqoZKKkTFpF
MChNeMB/hHytVoIxxahdf15VeHrIFUzI2HnltQ7bHagO
-----END CERTIFICATE-----
