Certificate:
    Data:
        Version: 3 (0x2)
        Serial Number:
            2c:08:18:f0:18:3f:8c:19:1f:a0:65:2c:b4:37:26:43:23:5a:60:38
        Signature Algorithm: sha256WithRSAEncryption
        Issuer: C=AU, O=Dodgy Brothers, CN=Dodgy CA
        Validity
            Not Before: Feb  2 19:41:45 2022 GMT
            Not After : Feb  2 19:41:45 2023 GMT
        Subject: C=AU, O=Dodgy Brothers, CN=Brother 1, CN=Brother 2
        Subject Public Key Info:
            Public Key Algorithm: rsaEncryption
                Public-Key: (2048 bit)
                Modulus:
                    00:a8:ff:89:58:61:85:ae:de:db:2c:0f:d5:73:fb:
                    e2:b7:a8:1b:7a:75:60:2b:d4:7d:3c:73:76:b5:ae:
                    de:93:2f:7f:24:90:6d:c9:1c:f4:8a:38:cd:9f:a2:
                    80:16:56:cb:b4:2c:bb:93:e5:17:1f:ff:0d:c6:43:
                    fe:31:34:f8:28:d8:75:e9:a3:bb:88:82:ef:a3:72:
                    e2:53:62:05:45:4d:e0:31:97:ef:aa:9d:10:d2:58:
                    0d:9e:06:9e:32:bb:1b:08:56:5d:65:0f:3f:66:8e:
                    c2:36:a0:11:ff:c0:59:35:fd:49:1c:dd:1c:42:33:
                    06:78:ae:04:38:23:e5:e7:75:67:d3:94:ad:5a:a9:
                    40:1f:ac:59:10:f5:0c:c1:64:ad:4a:c4:c6:35:53:
                    b3:96:6a:82:1b:15:8b:d1:99:ab:e4:9e:6f:94:aa:
                    d2:96:e5:57:fb:8c:91:64:8a:3c:24:16:c6:d2:19:
                    be:82:60:13:3b:62:b0:ed:3e:1d:b3:ca:f9:6b:df:
                    31:b9:7a:9e:4b:47:68:a7:29:c7:3f:4a:e2:22:27:
                    b4:ef:90:63:d7:ef:d0:72:49:3e:5b:ad:b9:1b:d4:
                    2b:6f:86:68:dd:d5:73:12:b8:43:c9:dc:41:0f:a2:
                    a3:46:4f:8b:67:88:84:0f:61:fe:79:34:1f:4a:89:
                    1f:b7
                Exponent: 65537 (0x10001)
        X509v3 extensions:
            X509v3 Basic Constraints: 
                CA:FALSE
            X509v3 Subject Key Identifier: 
                E7:9B:E2:2A:AD:8A:6C:3A:CB:76:51:E5:8E:07:98:22:97:E1:73:A2
            X509v3 Authority Key Identifier: 
                B4:11:33:F1:D7:E2:5E:F7:53:9E:20:22:10:4F:86:06:BF:1F:C9:5E
    Signature Algorithm: sha256WithRSAEncryption
    Signature Value:
        45:39:09:ba:b7:f2:83:8a:cb:18:02:48:74:87:63:04:af:72:
        7e:12:2f:a2:8f:bb:65:8e:cf:da:da:47:21:ff:98:3d:a2:1d:
        7c:ab:b7:e8:c6:5c:84:bc:1f:e6:25:55:dc:25:11:96:0b:17:
        fa:49:3c:f6:58:a7:8e:60:e1:bb:ab:85:8f:96:67:c5:7f:bc:
        f1:c9:46:94:c4:e2:12:36:5c:0b:52:93:58:a1:8a:45:9c:cc:
        a3:35:ab:a0:a2:43:c9:18:f0:fd:c6:b1:81:b5:eb:3f:72:52:
        50:50:d6:81:2b:b9:73:c0:a1:69:87:c6:7e:ea:0d:85:66:4d:
        5e:e8:f8:14:01:19:4d:63:d7:e0:eb:cf:54:76:62:44:c0:d2:
        66:4a:f4:7c:79:f8:ff:d4:f1:7e:77:fa:1d:5c:a8:64:40:96:
        5c:a0:e4:08:a6:09:66:90:f2:2a:00:96:5c:3d:64:3c:62:32:
        64:05:37:7f:d7:8b:5f:04:bb:64:8c:25:a3:04:c6:d3:32:c4:
        f9:96:c5:07:ab:2e:84:8a:2d:9f:45:a2:57:c3:28:cd:ed:d2:
        ba:29:c7:b4:92:32:3f:68:ad:1a:48:e6:da:bc:a6:cc:8c:c2:
        1b:13:4e:1c:39:9f:0e:fd:f1:ef:c8:db:41:cb:72:1f:66:c6:
        dc:92:99:74
-----BEGIN CERTIFICATE-----
MIIDYjCCAkqgAwIBAgIULAgY8Bg/jBkfoGUstDcmQyNaYDgwDQYJKoZIhvcNAQEL
BQAwOTELMAkGA1UEBhMCQVUxFzAVBgNVBAoMDkRvZGd5IEJyb3RoZXJzMREwDwYD
VQQDDAhEb2RneSBDQTAeFw0yMjAyMDIxOTQxNDVaFw0yMzAyMDIxOTQxNDVaME4x
CzAJBgNVBAYTAkFVMRcwFQYDVQQKDA5Eb2RneSBCcm90aGVyczESMBAGA1UEAwwJ
QnJvdGhlciAxMRIwEAYDVQQDDAlCcm90aGVyIDIwggEiMA0GCSqGSIb3DQEBAQUA
A4IBDwAwggEKAoIBAQCo/4lYYYWu3tssD9Vz++K3qBt6dWAr1H08c3a1rt6TL38k
kG3JHPSKOM2fooAWVsu0LLuT5Rcf/w3GQ/4xNPgo2HXpo7uIgu+jcuJTYgVFTeAx
l++qnRDSWA2eBp4yuxsIVl1lDz9mjsI2oBH/wFk1/Ukc3RxCMwZ4rgQ4I+XndWfT
lK1aqUAfrFkQ9QzBZK1KxMY1U7OWaoIbFYvRmavknm+UqtKW5Vf7jJFkijwkFsbS
Gb6CYBM7YrDtPh2zyvlr3zG5ep5LR2inKcc/SuIiJ7TvkGPX79ByST5brbkb1Ctv
hmjd1XMSuEPJ3EEPoqNGT4tniIQPYf55NB9KiR+3AgMBAAGjTTBLMAkGA1UdEwQC
MAAwHQYDVR0OBBYEFOeb4iqtimw6y3ZR5Y4HmCKX4XOiMB8GA1UdIwQYMBaAFLQR
M/HX4l73U54gIhBPhga/H8leMA0GCSqGSIb3DQEBCwUAA4IBAQBFOQm6t/KDissY
Akh0h2MEr3J+Ei+ij7tljs/a2kch/5g9oh18q7foxlyEvB/mJVXcJRGWCxf6STz2
WKeOYOG7q4WPlmfFf7zxyUaUxOISNlwLUpNYoYpFnMyjNaugokPJGPD9xrGBtes/
clJQUNaBK7lzwKFph8Z+6g2FZk1e6PgUARlNY9fg689UdmJEwNJmSvR8efj/1PF+
d/odXKhkQJZcoOQIpglmkPIqAJZcPWQ8YjJkBTd/14tfBLtkjCWjBMbTMsT5lsUH
qy6Eii2fRaJXwyjN7dK6Kce0kjI/aK0aSObavKbMjMIbE04cOZ8O/fHvyNtBy3If
Zsbckpl0
-----END CERTIFICATE-----
