Certificate:
    Data:
        Version: 3 (0x2)
        Serial Number:
            2c:08:18:f0:18:3f:8c:19:1f:a0:65:2c:b4:37:26:43:23:5a:60:3a
        Signature Algorithm: sha1WithRSAEncryption
        Issuer: C=AU, O=Dodgy Brothers, CN=Dodgy CA
        Validity
            Not Before: Feb  2 19:41:46 2022 GMT
            Not After : Feb  2 19:41:46 2023 GMT
        Subject: C=AU, O=Dodgy Brothers, CN=Brother 1, CN=notimes
        Subject Public Key Info:
            Public Key Algorithm: rsaEncryption
                Public-Key: (2048 bit)
                Modulus:
                    00:be:95:86:fa:71:4c:6a:ea:51:98:50:4b:99:a1:
                    2c:66:15:f3:60:f3:e1:ff:69:fb:ce:48:01:1d:fe:
                    e1:2c:38:b0:e3:bd:8f:4b:48:a7:7e:3a:c6:73:e3:
                    ab:bf:e1:da:6e:96:f5:fe:c3:e4:b4:a8:ad:bc:56:
                    34:d4:96:25:74:27:c3:10:db:35:10:25:1c:8e:4b:
                    81:9b:fb:42:04:7c:6f:3d:e2:38:6c:0e:e4:2e:8e:
                    2a:18:6d:30:cd:67:2a:23:6b:37:cf:05:9f:cc:b7:
                    59:58:7f:ba:c4:0a:3f:8c:a4:ad:cb:98:9c:c0:f2:
                    8f:69:67:0f:c1:4e:33:cf:fc:85:5e:bb:5e:cf:93:
                    b0:cf:d9:f4:52:79:87:b1:f8:4d:15:68:65:d5:b7:
                    19:08:63:7f:5e:b1:34:ad:05:8f:5a:f0:e4:e1:8f:
                    25:f2:5c:5c:61:95:b0:56:2d:31:2b:08:65:79:e5:
                    b1:3b:9d:3e:b9:52:4b:ac:5d:c4:58:66:85:8d:81:
                    b3:04:28:f4:3f:2f:ac:92:01:62:d5:fd:8e:0b:da:
                    02:0c:7a:c7:6e:09:1c:ac:1c:b2:4c:d7:54:b8:26:
                    33:b2:5f:14:f3:b1:f9:3d:62:4d:40:99:6b:b6:e7:
                    89:58:97:d6:d4:4d:ea:4b:68:52:f3:3c:a8:b1:35:
                    88:db
                Exponent: 65537 (0x10001)
        X509v3 extensions:
            X509v3 Subject Key Identifier: 
                A1:DF:33:C3:CF:3E:53:41:A7:68:44:CC:AA:19:E1:84:C9:0D:BC:C6
            X509v3 Authority Key Identifier: 
                keyid:B4:11:33:F1:D7:E2:5E:F7:53:9E:20:22:10:4F:86:06:BF:1F:C9:5E
                DirName:/C=AU/O=Dodgy Brothers/CN=Dodgy CA
                serial:07:B1:A4:F3:47:67:CB:E5:BE:1E:33:A8:7B:73:74:FD:9A:D8:63:C3
            X509v3 Basic Constraints: critical
                CA:TRUE, pathlen:1
            X509v3 Key Usage: 
                Certificate Sign, CRL Sign
            X509v3 Issuer Alternative Name: 
                <EMPTY>

    Signature Algorithm: sha1WithRSAEncryption
    Signature Value:
        90:ce:1d:fc:fd:a2:a8:cb:93:af:69:92:82:1a:a9:17:61:59:
        09:da:6d:2f:19:1d:21:83:6a:7c:d8:e4:7c:50:e1:2b:4f:eb:
        be:5b:1b:e2:11:1a:b1:32:1f:0a:2f:11:da:ac:41:d3:1a:03:
        c6:75:43:96:c0:66:ec:c5:4f:59:b3:f1:f0:87:ac:d6:aa:42:
        54:ec:c8:6a:3f:7c:79:4d:e6:a8:0a:a2:65:be:50:ff:f1:3e:
        4b:77:85:64:d5:45:7e:91:26:99:31:39:84:75:c1:06:fd:c4:
        cc:d8:33:46:f8:ff:2a:44:f3:fb:01:ff:52:bc:07:23:d1:fc:
        8f:64:5a:7a:04:b2:90:b5:74:c5:4f:df:6a:2c:6b:55:4b:1a:
        a2:31:03:64:36:35:54:b4:f8:3e:9e:66:2f:3d:b5:10:ea:0f:
        d4:38:1a:35:c2:fb:a9:59:9c:85:c2:37:78:63:29:d5:bb:15:
        48:b0:cc:c7:76:11:31:5b:16:9b:e0:e6:55:1d:12:36:28:f6:
        b9:a7:b4:c0:f4:87:f6:25:8c:61:d1:b7:9c:1e:fe:d6:e5:7f:
        03:c2:e4:53:38:98:b7:7b:54:1e:8d:c3:48:e0:a4:92:ab:65:
        07:7a:b0:d8:3e:cc:a2:05:e6:d5:6b:1a:28:92:8c:e1:33:5c:
        d4:77:6c:8e
-----BEGIN CERTIFICATE-----
MIID2DCCAsCgAwIBAgIULAgY8Bg/jBkfoGUstDcmQyNaYDowDQYJKoZIhvcNAQEF
BQAwOTELMAkGA1UEBhMCQVUxFzAVBgNVBAoMDkRvZGd5IEJyb3RoZXJzMREwDwYD
VQQDDAhEb2RneSBDQTAeFw0yMjAyMDIxOTQxNDZaFw0yMzAyMDIxOTQxNDZaMEwx
CzAJBgNVBAYTAkFVMRcwFQYDVQQKDA5Eb2RneSBCcm90aGVyczESMBAGA1UEAwwJ
QnJvdGhlciAxMRAwDgYDVQQDDAdub3RpbWVzMIIBIjANBgkqhkiG9w0BAQEFAAOC
AQ8AMIIBCgKCAQEAvpWG+nFMaupRmFBLmaEsZhXzYPPh/2n7zkgBHf7hLDiw472P
S0infjrGc+Orv+Habpb1/sPktKitvFY01JYldCfDENs1ECUcjkuBm/tCBHxvPeI4
bA7kLo4qGG0wzWcqI2s3zwWfzLdZWH+6xAo/jKSty5icwPKPaWcPwU4zz/yFXrte
z5Owz9n0UnmHsfhNFWhl1bcZCGN/XrE0rQWPWvDk4Y8l8lxcYZWwVi0xKwhleeWx
O50+uVJLrF3EWGaFjYGzBCj0Py+skgFi1f2OC9oCDHrHbgkcrByyTNdUuCYzsl8U
87H5PWJNQJlrtueJWJfW1E3qS2hS8zyosTWI2wIDAQABo4HEMIHBMB0GA1UdDgQW
BBSh3zPDzz5TQadoRMyqGeGEyQ28xjB0BgNVHSMEbTBrgBS0ETPx1+Je91OeICIQ
T4YGvx/JXqE9pDswOTELMAkGA1UEBhMCQVUxFzAVBgNVBAoMDkRvZGd5IEJyb3Ro
ZXJzMREwDwYDVQQDDAhEb2RneSBDQYIUB7Gk80dny+W+HjOoe3N0/ZrYY8MwEgYD
VR0TAQH/BAgwBgEB/wIBATALBgNVHQ8EBAMCAQYwCQYDVR0SBAIwADANBgkqhkiG
9w0BAQUFAAOCAQEAkM4d/P2iqMuTr2mSghqpF2FZCdptLxkdIYNqfNjkfFDhK0/r
vlsb4hEasTIfCi8R2qxB0xoDxnVDlsBm7MVPWbPx8Ies1qpCVOzIaj98eU3mqAqi
Zb5Q//E+S3eFZNVFfpEmmTE5hHXBBv3EzNgzRvj/KkTz+wH/UrwHI9H8j2RaegSy
kLV0xU/faixrVUsaojEDZDY1VLT4Pp5mLz21EOoP1DgaNcL7qVmchcI3eGMp1bsV
SLDMx3YRMVsWm+DmVR0SNij2uae0wPSH9iWMYdG3nB7+1uV/A8LkUziYt3tUHo3D
SOCkkqtlB3qw2D7MogXm1WsaKJKM4TNc1Hdsjg==
-----END CERTIFICATE-----
