Certificate:
    Data:
        Version: 3 (0x2)
        Serial Number:
            2c:08:18:f0:18:3f:8c:19:1f:a0:65:2c:b4:37:26:43:23:5a:60:3b
        Signature Algorithm: sha1WithRSAEncryption
        Issuer: C=AU, O=Dodgy Brothers, CN=Dodgy CA
        Validity
            Not Before: Feb  2 19:41:46 2022 GMT
            Not After : Feb  2 19:41:46 2023 GMT
        Subject: C=AU, O=Dodgy Brothers, CN=Brother 1, CN=lastupdate_invalid
        Subject Public Key Info:
            Public Key Algorithm: rsaEncryption
                Public-Key: (2048 bit)
                Modulus:
                    00:be:95:86:fa:71:4c:6a:ea:51:98:50:4b:99:a1:
                    2c:66:15:f3:60:f3:e1:ff:69:fb:ce:48:01:1d:fe:
                    e1:2c:38:b0:e3:bd:8f:4b:48:a7:7e:3a:c6:73:e3:
                    ab:bf:e1:da:6e:96:f5:fe:c3:e4:b4:a8:ad:bc:56:
                    34:d4:96:25:74:27:c3:10:db:35:10:25:1c:8e:4b:
                    81:9b:fb:42:04:7c:6f:3d:e2:38:6c:0e:e4:2e:8e:
                    2a:18:6d:30:cd:67:2a:23:6b:37:cf:05:9f:cc:b7:
                    59:58:7f:ba:c4:0a:3f:8c:a4:ad:cb:98:9c:c0:f2:
                    8f:69:67:0f:c1:4e:33:cf:fc:85:5e:bb:5e:cf:93:
                    b0:cf:d9:f4:52:79:87:b1:f8:4d:15:68:65:d5:b7:
                    19:08:63:7f:5e:b1:34:ad:05:8f:5a:f0:e4:e1:8f:
                    25:f2:5c:5c:61:95:b0:56:2d:31:2b:08:65:79:e5:
                    b1:3b:9d:3e:b9:52:4b:ac:5d:c4:58:66:85:8d:81:
                    b3:04:28:f4:3f:2f:ac:92:01:62:d5:fd:8e:0b:da:
                    02:0c:7a:c7:6e:09:1c:ac:1c:b2:4c:d7:54:b8:26:
                    33:b2:5f:14:f3:b1:f9:3d:62:4d:40:99:6b:b6:e7:
                    89:58:97:d6:d4:4d:ea:4b:68:52:f3:3c:a8:b1:35:
                    88:db
                Exponent: 65537 (0x10001)
        X509v3 extensions:
            X509v3 Subject Key Identifier: 
                A1:DF:33:C3:CF:3E:53:41:A7:68:44:CC:AA:19:E1:84:C9:0D:BC:C6
            X509v3 Authority Key Identifier: 
                keyid:B4:11:33:F1:D7:E2:5E:F7:53:9E:20:22:10:4F:86:06:BF:1F:C9:5E
                DirName:/C=AU/O=Dodgy Brothers/CN=Dodgy CA
                serial:07:B1:A4:F3:47:67:CB:E5:BE:1E:33:A8:7B:73:74:FD:9A:D8:63:C3
            X509v3 Basic Constraints: critical
                CA:TRUE, pathlen:1
            X509v3 Key Usage: 
                Certificate Sign, CRL Sign
            X509v3 Issuer Alternative Name: 
                <EMPTY>

    Signature Algorithm: sha1WithRSAEncryption
    Signature Value:
        57:9b:bb:d2:61:9f:e4:1b:7f:13:29:3a:a1:a2:cf:f6:2a:88:
        35:2f:d0:a0:76:fb:b8:77:49:3f:7f:5b:82:44:0a:95:84:e9:
        a1:ab:9d:54:c4:17:87:42:ee:80:0d:5e:b3:43:1c:2f:85:41:
        68:f6:12:5c:4e:8b:5e:51:78:a2:2c:7c:e6:55:e9:ab:30:38:
        7f:ea:3f:95:ac:d0:44:ad:be:84:c9:c7:81:15:4c:f0:7d:62:
        f5:86:f9:83:72:6b:61:a4:f1:5c:45:5a:f9:2b:85:ec:f2:86:
        0d:14:8f:ed:a3:12:4b:6c:7f:c8:41:9c:45:8c:f0:30:fa:d9:
        de:08:a0:9b:5f:70:bb:9e:54:28:ed:aa:bf:ba:18:0d:e5:e7:
        15:5f:34:3d:f5:43:43:62:52:68:fc:50:1e:c9:db:1e:fc:66:
        d8:2e:62:33:b8:5b:83:a5:a7:e6:2b:26:fa:07:6e:9c:4c:f5:
        44:50:ba:0a:09:35:54:31:cf:7e:13:55:d2:d5:1f:fa:2a:d3:
        a7:c4:68:84:27:91:cd:05:84:44:63:61:3f:9c:6e:f9:bf:e5:
        17:06:4a:9c:d8:d0:71:bd:45:77:cb:aa:e2:05:04:7d:70:4a:
        94:11:0d:17:c2:83:75:87:2c:7d:f8:c8:41:73:9a:52:59:3b:
        5b:a1:fa:d0
-----BEGIN CERTIFICATE-----
MIID4zCCAsugAwIBAgIULAgY8Bg/jBkfoGUstDcmQyNaYDswDQYJKoZIhvcNAQEF
BQAwOTELMAkGA1UEBhMCQVUxFzAVBgNVBAoMDkRvZGd5IEJyb3RoZXJzMREwDwYD
VQQDDAhEb2RneSBDQTAeFw0yMjAyMDIxOTQxNDZaFw0yMzAyMDIxOTQxNDZaMFcx
CzAJBgNVBAYTAkFVMRcwFQYDVQQKDA5Eb2RneSBCcm90aGVyczESMBAGA1UEAwwJ
QnJvdGhlciAxMRswGQYDVQQDDBJsYXN0dXBkYXRlX2ludmFsaWQwggEiMA0GCSqG
SIb3DQEBAQUAA4IBDwAwggEKAoIBAQC+lYb6cUxq6lGYUEuZoSxmFfNg8+H/afvO
SAEd/uEsOLDjvY9LSKd+OsZz46u/4dpulvX+w+S0qK28VjTUliV0J8MQ2zUQJRyO
S4Gb+0IEfG894jhsDuQujioYbTDNZyojazfPBZ/Mt1lYf7rECj+MpK3LmJzA8o9p
Zw/BTjPP/IVeu17Pk7DP2fRSeYex+E0VaGXVtxkIY39esTStBY9a8OThjyXyXFxh
lbBWLTErCGV55bE7nT65UkusXcRYZoWNgbMEKPQ/L6ySAWLV/Y4L2gIMesduCRys
HLJM11S4JjOyXxTzsfk9Yk1AmWu254lYl9bUTepLaFLzPKixNYjbAgMBAAGjgcQw
gcEwHQYDVR0OBBYEFKHfM8PPPlNBp2hEzKoZ4YTJDbzGMHQGA1UdIwRtMGuAFLQR
M/HX4l73U54gIhBPhga/H8leoT2kOzA5MQswCQYDVQQGEwJBVTEXMBUGA1UECgwO
RG9kZ3kgQnJvdGhlcnMxETAPBgNVBAMMCERvZGd5IENBghQHsaTzR2fL5b4eM6h7
c3T9mthjwzASBgNVHRMBAf8ECDAGAQH/AgEBMAsGA1UdDwQEAwIBBjAJBgNVHRIE
AjAAMA0GCSqGSIb3DQEBBQUAA4IBAQBXm7vSYZ/kG38TKTqhos/2Kog1L9Cgdvu4
d0k/f1uCRAqVhOmhq51UxBeHQu6ADV6zQxwvhUFo9hJcToteUXiiLHzmVemrMDh/
6j+VrNBErb6EyceBFUzwfWL1hvmDcmthpPFcRVr5K4Xs8oYNFI/toxJLbH/IQZxF
jPAw+tneCKCbX3C7nlQo7aq/uhgN5ecVXzQ99UNDYlJo/FAeydse/GbYLmIzuFuD
pafmKyb6B26cTPVEULoKCTVUMc9+E1XS1R/6KtOnxGiEJ5HNBYREY2E/nG75v+UX
Bkqc2NBxvUV3y6riBQR9cEqUEQ0XwoN1hyx9+MhBc5pSWTtbofrQ
-----END CERTIFICATE-----
