Certificate:
    Data:
        Version: 3 (0x2)
        Serial Number:
            2c:08:18:f0:18:3f:8c:19:1f:a0:65:2c:b4:37:26:43:23:5a:60:42
        Signature Algorithm: sha1WithRSAEncryption
        Issuer: C=AU, O=Dodgy Brothers, CN=Dodgy CA
        Validity
            Not Before: Feb  2 19:41:48 2022 GMT
            Not After : Feb  2 19:41:48 2023 GMT
        Subject: C=AU, O=Dodgy Brothers, CN=Brother 1, CN=both_generalizedtime
        Subject Public Key Info:
            Public Key Algorithm: rsaEncryption
                Public-Key: (2048 bit)
                Modulus:
                    00:be:95:86:fa:71:4c:6a:ea:51:98:50:4b:99:a1:
                    2c:66:15:f3:60:f3:e1:ff:69:fb:ce:48:01:1d:fe:
                    e1:2c:38:b0:e3:bd:8f:4b:48:a7:7e:3a:c6:73:e3:
                    ab:bf:e1:da:6e:96:f5:fe:c3:e4:b4:a8:ad:bc:56:
                    34:d4:96:25:74:27:c3:10:db:35:10:25:1c:8e:4b:
                    81:9b:fb:42:04:7c:6f:3d:e2:38:6c:0e:e4:2e:8e:
                    2a:18:6d:30:cd:67:2a:23:6b:37:cf:05:9f:cc:b7:
                    59:58:7f:ba:c4:0a:3f:8c:a4:ad:cb:98:9c:c0:f2:
                    8f:69:67:0f:c1:4e:33:cf:fc:85:5e:bb:5e:cf:93:
                    b0:cf:d9:f4:52:79:87:b1:f8:4d:15:68:65:d5:b7:
                    19:08:63:7f:5e:b1:34:ad:05:8f:5a:f0:e4:e1:8f:
                    25:f2:5c:5c:61:95:b0:56:2d:31:2b:08:65:79:e5:
                    b1:3b:9d:3e:b9:52:4b:ac:5d:c4:58:66:85:8d:81:
                    b3:04:28:f4:3f:2f:ac:92:01:62:d5:fd:8e:0b:da:
                    02:0c:7a:c7:6e:09:1c:ac:1c:b2:4c:d7:54:b8:26:
                    33:b2:5f:14:f3:b1:f9:3d:62:4d:40:99:6b:b6:e7:
                    89:58:97:d6:d4:4d:ea:4b:68:52:f3:3c:a8:b1:35:
                    88:db
                Exponent: 65537 (0x10001)
        X509v3 extensions:
            X509v3 Subject Key Identifier: 
                A1:DF:33:C3:CF:3E:53:41:A7:68:44:CC:AA:19:E1:84:C9:0D:BC:C6
            X509v3 Authority Key Identifier: 
                keyid:B4:11:33:F1:D7:E2:5E:F7:53:9E:20:22:10:4F:86:06:BF:1F:C9:5E
                DirName:/C=AU/O=Dodgy Brothers/CN=Dodgy CA
                serial:07:B1:A4:F3:47:67:CB:E5:BE:1E:33:A8:7B:73:74:FD:9A:D8:63:C3
            X509v3 Basic Constraints: critical
                CA:TRUE, pathlen:1
            X509v3 Key Usage: 
                Certificate Sign, CRL Sign
            X509v3 Issuer Alternative Name: 
                <EMPTY>

    Signature Algorithm: sha1WithRSAEncryption
    Signature Value:
        72:64:82:2f:86:1b:86:d0:3e:a3:ed:83:8b:70:70:55:cc:dd:
        05:b8:34:15:17:5a:32:3a:a6:50:04:a5:93:ed:3e:36:c7:3f:
        36:b3:88:db:70:18:17:68:3a:1d:36:96:11:dd:93:96:f7:5d:
        e3:c8:83:0e:3a:6d:c5:49:75:5d:f0:96:9a:06:a5:36:3d:69:
        89:ad:38:73:62:b1:24:9a:96:70:4f:48:ef:70:e3:83:88:2d:
        f6:6f:f2:61:96:39:eb:da:ba:dd:fc:00:20:3a:fc:87:72:55:
        51:32:9d:03:dc:72:06:be:9b:73:ff:94:c1:b7:ae:72:28:66:
        43:f7:08:2a:63:c3:e5:81:e8:2d:d7:2f:76:96:63:4e:5c:e8:
        88:57:27:7f:d0:26:30:fe:33:03:6b:67:89:52:30:bd:4e:c8:
        6d:27:50:a6:50:1b:4e:54:e0:70:ad:97:72:bc:68:af:64:c3:
        45:ca:a1:73:4c:2d:ee:b8:ab:00:55:43:04:fe:4d:61:2b:c3:
        03:a4:65:50:ff:db:27:a4:5e:93:f5:3f:1b:f4:25:74:25:96:
        e9:24:a8:d4:26:a0:0f:e2:24:d1:90:8e:50:fd:1d:58:a2:07:
        21:b8:fe:49:e2:62:96:d6:14:6c:20:9c:55:d5:fd:74:72:6e:
        78:18:95:c7
-----BEGIN CERTIFICATE-----
MIID5TCCAs2gAwIBAgIULAgY8Bg/jBkfoGUstDcmQyNaYEIwDQYJKoZIhvcNAQEF
BQAwOTELMAkGA1UEBhMCQVUxFzAVBgNVBAoMDkRvZGd5IEJyb3RoZXJzMREwDwYD
VQQDDAhEb2RneSBDQTAeFw0yMjAyMDIxOTQxNDhaFw0yMzAyMDIxOTQxNDhaMFkx
CzAJBgNVBAYTAkFVMRcwFQYDVQQKDA5Eb2RneSBCcm90aGVyczESMBAGA1UEAwwJ
QnJvdGhlciAxMR0wGwYDVQQDDBRib3RoX2dlbmVyYWxpemVkdGltZTCCASIwDQYJ
KoZIhvcNAQEBBQADggEPADCCAQoCggEBAL6VhvpxTGrqUZhQS5mhLGYV82Dz4f9p
+85IAR3+4Sw4sOO9j0tIp346xnPjq7/h2m6W9f7D5LSorbxWNNSWJXQnwxDbNRAl
HI5LgZv7QgR8bz3iOGwO5C6OKhhtMM1nKiNrN88Fn8y3WVh/usQKP4ykrcuYnMDy
j2lnD8FOM8/8hV67Xs+TsM/Z9FJ5h7H4TRVoZdW3GQhjf16xNK0Fj1rw5OGPJfJc
XGGVsFYtMSsIZXnlsTudPrlSS6xdxFhmhY2BswQo9D8vrJIBYtX9jgvaAgx6x24J
HKwcskzXVLgmM7JfFPOx+T1iTUCZa7bniViX1tRN6ktoUvM8qLE1iNsCAwEAAaOB
xDCBwTAdBgNVHQ4EFgQUod8zw88+U0GnaETMqhnhhMkNvMYwdAYDVR0jBG0wa4AU
tBEz8dfiXvdTniAiEE+GBr8fyV6hPaQ7MDkxCzAJBgNVBAYTAkFVMRcwFQYDVQQK
DA5Eb2RneSBCcm90aGVyczERMA8GA1UEAwwIRG9kZ3kgQ0GCFAexpPNHZ8vlvh4z
qHtzdP2a2GPDMBIGA1UdEwEB/wQIMAYBAf8CAQEwCwYDVR0PBAQDAgEGMAkGA1Ud
EgQCMAAwDQYJKoZIhvcNAQEFBQADggEBAHJkgi+GG4bQPqPtg4twcFXM3QW4NBUX
WjI6plAEpZPtPjbHPzaziNtwGBdoOh02lhHdk5b3XePIgw46bcVJdV3wlpoGpTY9
aYmtOHNisSSalnBPSO9w44OILfZv8mGWOevaut38ACA6/IdyVVEynQPccga+m3P/
lMG3rnIoZkP3CCpjw+WB6C3XL3aWY05c6IhXJ3/QJjD+MwNrZ4lSML1OyG0nUKZQ
G05U4HCtl3K8aK9kw0XKoXNMLe64qwBVQwT+TWErwwOkZVD/2yekXpP1Pxv0JXQl
lukkqNQmoA/iJNGQjlD9HViiByG4/kniYpbWFGwgnFXV/XRybngYlcc=
-----END CERTIFICATE-----
