Certificate:
    Data:
        Version: 3 (0x2)
        Serial Number:
            2c:08:18:f0:18:3f:8c:19:1f:a0:65:2c:b4:37:26:43:23:5a:60:3c
        Signature Algorithm: sha1WithRSAEncryption
        Issuer: C=AU, O=Dodgy Brothers, CN=Dodgy CA
        Validity
            Not Before: Feb  2 19:41:46 2022 GMT
            Not After : Feb  2 19:41:46 2023 GMT
        Subject: C=AU, O=Dodgy Brothers, CN=Brother 1, CN=lastupdate_utctime
        Subject Public Key Info:
            Public Key Algorithm: rsaEncryption
                Public-Key: (2048 bit)
                Modulus:
                    00:be:95:86:fa:71:4c:6a:ea:51:98:50:4b:99:a1:
                    2c:66:15:f3:60:f3:e1:ff:69:fb:ce:48:01:1d:fe:
                    e1:2c:38:b0:e3:bd:8f:4b:48:a7:7e:3a:c6:73:e3:
                    ab:bf:e1:da:6e:96:f5:fe:c3:e4:b4:a8:ad:bc:56:
                    34:d4:96:25:74:27:c3:10:db:35:10:25:1c:8e:4b:
                    81:9b:fb:42:04:7c:6f:3d:e2:38:6c:0e:e4:2e:8e:
                    2a:18:6d:30:cd:67:2a:23:6b:37:cf:05:9f:cc:b7:
                    59:58:7f:ba:c4:0a:3f:8c:a4:ad:cb:98:9c:c0:f2:
                    8f:69:67:0f:c1:4e:33:cf:fc:85:5e:bb:5e:cf:93:
                    b0:cf:d9:f4:52:79:87:b1:f8:4d:15:68:65:d5:b7:
                    19:08:63:7f:5e:b1:34:ad:05:8f:5a:f0:e4:e1:8f:
                    25:f2:5c:5c:61:95:b0:56:2d:31:2b:08:65:79:e5:
                    b1:3b:9d:3e:b9:52:4b:ac:5d:c4:58:66:85:8d:81:
                    b3:04:28:f4:3f:2f:ac:92:01:62:d5:fd:8e:0b:da:
                    02:0c:7a:c7:6e:09:1c:ac:1c:b2:4c:d7:54:b8:26:
                    33:b2:5f:14:f3:b1:f9:3d:62:4d:40:99:6b:b6:e7:
                    89:58:97:d6:d4:4d:ea:4b:68:52:f3:3c:a8:b1:35:
                    88:db
                Exponent: 65537 (0x10001)
        X509v3 extensions:
            X509v3 Subject Key Identifier: 
                A1:DF:33:C3:CF:3E:53:41:A7:68:44:CC:AA:19:E1:84:C9:0D:BC:C6
            X509v3 Authority Key Identifier: 
                keyid:B4:11:33:F1:D7:E2:5E:F7:53:9E:20:22:10:4F:86:06:BF:1F:C9:5E
                DirName:/C=AU/O=Dodgy Brothers/CN=Dodgy CA
                serial:07:B1:A4:F3:47:67:CB:E5:BE:1E:33:A8:7B:73:74:FD:9A:D8:63:C3
            X509v3 Basic Constraints: critical
                CA:TRUE, pathlen:1
            X509v3 Key Usage: 
                Certificate Sign, CRL Sign
            X509v3 Issuer Alternative Name: 
                <EMPTY>

    Signature Algorithm: sha1WithRSAEncryption
    Signature Value:
        34:13:00:d5:48:26:ac:0a:0b:22:92:1a:0a:ec:ea:44:c1:ae:
        e2:15:ca:8d:a3:7b:5c:de:83:09:f2:bf:9b:af:8c:6f:c0:34:
        0a:1c:38:64:f6:b9:5e:46:d2:fe:ba:28:68:33:f5:c1:64:c2:
        91:30:75:92:c0:58:b5:72:7d:65:22:e8:6d:7a:fa:33:c2:fa:
        ad:d2:41:b7:2b:d1:47:59:1c:59:07:09:40:02:cf:5d:c2:a3:
        e0:66:a9:93:7a:64:a6:cf:45:f5:c2:80:56:74:53:22:c7:8c:
        59:54:67:a1:b2:cd:78:15:cd:cc:f2:04:5e:65:3f:27:0f:c1:
        fd:7a:c0:03:ba:e2:ae:2a:14:f6:11:3d:61:2f:63:58:fd:fe:
        02:8a:f1:7a:b9:0d:cf:5d:f0:d9:86:b7:4f:9f:76:bb:1d:6f:
        92:0f:1a:ea:88:e6:ff:be:db:ca:9b:ca:48:71:7e:40:6e:29:
        b8:6d:12:ee:4b:8c:0f:66:e0:72:46:52:ea:f0:13:bc:d9:f6:
        fb:b6:58:7a:b2:e2:32:95:98:59:01:af:d2:ee:95:5c:1f:53:
        d7:23:3d:3d:5d:ad:97:e5:62:c7:58:e9:c3:51:cd:d7:dc:25:
        b4:c6:ef:c6:15:9a:95:c5:cf:9b:39:97:ca:6b:66:20:cb:81:
        44:c7:19:12
-----BEGIN CERTIFICATE-----
MIID4zCCAsugAwIBAgIULAgY8Bg/jBkfoGUstDcmQyNaYDwwDQYJKoZIhvcNAQEF
BQAwOTELMAkGA1UEBhMCQVUxFzAVBgNVBAoMDkRvZGd5IEJyb3RoZXJzMREwDwYD
VQQDDAhEb2RneSBDQTAeFw0yMjAyMDIxOTQxNDZaFw0yMzAyMDIxOTQxNDZaMFcx
CzAJBgNVBAYTAkFVMRcwFQYDVQQKDA5Eb2RneSBCcm90aGVyczESMBAGA1UEAwwJ
QnJvdGhlciAxMRswGQYDVQQDDBJsYXN0dXBkYXRlX3V0Y3RpbWUwggEiMA0GCSqG
SIb3DQEBAQUAA4IBDwAwggEKAoIBAQC+lYb6cUxq6lGYUEuZoSxmFfNg8+H/afvO
SAEd/uEsOLDjvY9LSKd+OsZz46u/4dpulvX+w+S0qK28VjTUliV0J8MQ2zUQJRyO
S4Gb+0IEfG894jhsDuQujioYbTDNZyojazfPBZ/Mt1lYf7rECj+MpK3LmJzA8o9p
Zw/BTjPP/IVeu17Pk7DP2fRSeYex+E0VaGXVtxkIY39esTStBY9a8OThjyXyXFxh
lbBWLTErCGV55bE7nT65UkusXcRYZoWNgbMEKPQ/L6ySAWLV/Y4L2gIMesduCRys
HLJM11S4JjOyXxTzsfk9Yk1AmWu254lYl9bUTepLaFLzPKixNYjbAgMBAAGjgcQw
gcEwHQYDVR0OBBYEFKHfM8PPPlNBp2hEzKoZ4YTJDbzGMHQGA1UdIwRtMGuAFLQR
M/HX4l73U54gIhBPhga/H8leoT2kOzA5MQswCQYDVQQGEwJBVTEXMBUGA1UECgwO
RG9kZ3kgQnJvdGhlcnMxETAPBgNVBAMMCERvZGd5IENBghQHsaTzR2fL5b4eM6h7
c3T9mthjwzASBgNVHRMBAf8ECDAGAQH/AgEBMAsGA1UdDwQEAwIBBjAJBgNVHRIE
AjAAMA0GCSqGSIb3DQEBBQUAA4IBAQA0EwDVSCasCgsikhoK7OpEwa7iFcqNo3tc
3oMJ8r+br4xvwDQKHDhk9rleRtL+uihoM/XBZMKRMHWSwFi1cn1lIuhtevozwvqt
0kG3K9FHWRxZBwlAAs9dwqPgZqmTemSmz0X1woBWdFMix4xZVGehss14Fc3M8gRe
ZT8nD8H9esADuuKuKhT2ET1hL2NY/f4CivF6uQ3PXfDZhrdPn3a7HW+SDxrqiOb/
vtvKm8pIcX5Abim4bRLuS4wPZuByRlLq8BO82fb7tlh6suIylZhZAa/S7pVcH1PX
Iz09Xa2X5WLHWOnDUc3X3CW0xu/GFZqVxc+bOZfKa2Ygy4FExxkS
-----END CERTIFICATE-----
