Certificate:
    Data:
        Version: 3 (0x2)
        Serial Number:
            2c:08:18:f0:18:3f:8c:19:1f:a0:65:2c:b4:37:26:43:23:5a:60:3d
        Signature Algorithm: sha1WithRSAEncryption
        Issuer: C=AU, O=Dodgy Brothers, CN=Dodgy CA
        Validity
            Not Before: Feb  2 19:41:46 2022 GMT
            Not After : Feb  2 19:41:46 2023 GMT
        Subject: C=AU, O=Dodgy Brothers, CN=Brother 1, CN=lastupdate_generalizedtime
        Subject Public Key Info:
            Public Key Algorithm: rsaEncryption
                Public-Key: (2048 bit)
                Modulus:
                    00:be:95:86:fa:71:4c:6a:ea:51:98:50:4b:99:a1:
                    2c:66:15:f3:60:f3:e1:ff:69:fb:ce:48:01:1d:fe:
                    e1:2c:38:b0:e3:bd:8f:4b:48:a7:7e:3a:c6:73:e3:
                    ab:bf:e1:da:6e:96:f5:fe:c3:e4:b4:a8:ad:bc:56:
                    34:d4:96:25:74:27:c3:10:db:35:10:25:1c:8e:4b:
                    81:9b:fb:42:04:7c:6f:3d:e2:38:6c:0e:e4:2e:8e:
                    2a:18:6d:30:cd:67:2a:23:6b:37:cf:05:9f:cc:b7:
                    59:58:7f:ba:c4:0a:3f:8c:a4:ad:cb:98:9c:c0:f2:
                    8f:69:67:0f:c1:4e:33:cf:fc:85:5e:bb:5e:cf:93:
                    b0:cf:d9:f4:52:79:87:b1:f8:4d:15:68:65:d5:b7:
                    19:08:63:7f:5e:b1:34:ad:05:8f:5a:f0:e4:e1:8f:
                    25:f2:5c:5c:61:95:b0:56:2d:31:2b:08:65:79:e5:
                    b1:3b:9d:3e:b9:52:4b:ac:5d:c4:58:66:85:8d:81:
                    b3:04:28:f4:3f:2f:ac:92:01:62:d5:fd:8e:0b:da:
                    02:0c:7a:c7:6e:09:1c:ac:1c:b2:4c:d7:54:b8:26:
                    33:b2:5f:14:f3:b1:f9:3d:62:4d:40:99:6b:b6:e7:
                    89:58:97:d6:d4:4d:ea:4b:68:52:f3:3c:a8:b1:35:
                    88:db
                Exponent: 65537 (0x10001)
        X509v3 extensions:
            X509v3 Subject Key Identifier: 
                A1:DF:33:C3:CF:3E:53:41:A7:68:44:CC:AA:19:E1:84:C9:0D:BC:C6
            X509v3 Authority Key Identifier: 
                keyid:B4:11:33:F1:D7:E2:5E:F7:53:9E:20:22:10:4F:86:06:BF:1F:C9:5E
                DirName:/C=AU/O=Dodgy Brothers/CN=Dodgy CA
                serial:07:B1:A4:F3:47:67:CB:E5:BE:1E:33:A8:7B:73:74:FD:9A:D8:63:C3
            X509v3 Basic Constraints: critical
                CA:TRUE, pathlen:1
            X509v3 Key Usage: 
                Certificate Sign, CRL Sign
            X509v3 Issuer Alternative Name: 
                <EMPTY>

    Signature Algorithm: sha1WithRSAEncryption
    Signature Value:
        1d:11:8f:68:5f:b6:e1:f2:46:ad:be:00:a5:d5:46:84:9c:fb:
        f5:a1:81:f1:78:2b:2f:bb:aa:65:2b:85:45:f8:df:b6:43:b1:
        b2:f0:ea:4c:3a:51:e7:97:17:0f:e2:08:e9:37:e5:63:32:78:
        1b:b9:1d:28:eb:f8:ba:e6:6c:b9:b1:43:5d:25:df:f6:28:83:
        2f:64:46:9f:ae:9c:4d:f1:0d:74:5a:00:95:68:e5:01:25:74:
        0c:83:4c:17:09:06:0c:51:8f:f2:2d:8f:d1:3b:05:36:2c:e2:
        f7:c7:7e:59:16:3c:8d:3b:64:43:58:87:12:16:16:50:be:5e:
        8b:f4:c1:86:ac:83:7d:8c:68:88:2e:8c:ca:44:e5:8a:40:1c:
        ed:8f:c5:27:29:79:23:8a:9d:33:e8:15:26:95:d2:9e:08:3b:
        2e:03:16:68:81:06:c2:d9:fa:39:6a:7d:04:68:44:59:7f:5a:
        2b:6b:d8:39:00:30:90:b8:ed:40:bb:b3:3b:ab:70:2f:c2:7d:
        46:10:01:ca:7f:fe:53:09:f7:4c:f0:1b:76:0b:a4:44:a0:a8:
        9a:87:9f:38:e7:37:ed:e1:9c:7d:ed:c8:b6:11:29:51:55:6d:
        f9:f1:18:a2:55:1e:ea:93:a6:d4:31:79:3b:86:32:1e:5a:a7:
        ed:fc:fa:a9
-----BEGIN CERTIFICATE-----
MIID6zCCAtOgAwIBAgIULAgY8Bg/jBkfoGUstDcmQyNaYD0wDQYJKoZIhvcNAQEF
BQAwOTELMAkGA1UEBhMCQVUxFzAVBgNVBAoMDkRvZGd5IEJyb3RoZXJzMREwDwYD
VQQDDAhEb2RneSBDQTAeFw0yMjAyMDIxOTQxNDZaFw0yMzAyMDIxOTQxNDZaMF8x
CzAJBgNVBAYTAkFVMRcwFQYDVQQKDA5Eb2RneSBCcm90aGVyczESMBAGA1UEAwwJ
QnJvdGhlciAxMSMwIQYDVQQDDBpsYXN0dXBkYXRlX2dlbmVyYWxpemVkdGltZTCC
ASIwDQYJKoZIhvcNAQEBBQADggEPADCCAQoCggEBAL6VhvpxTGrqUZhQS5mhLGYV
82Dz4f9p+85IAR3+4Sw4sOO9j0tIp346xnPjq7/h2m6W9f7D5LSorbxWNNSWJXQn
wxDbNRAlHI5LgZv7QgR8bz3iOGwO5C6OKhhtMM1nKiNrN88Fn8y3WVh/usQKP4yk
rcuYnMDyj2lnD8FOM8/8hV67Xs+TsM/Z9FJ5h7H4TRVoZdW3GQhjf16xNK0Fj1rw
5OGPJfJcXGGVsFYtMSsIZXnlsTudPrlSS6xdxFhmhY2BswQo9D8vrJIBYtX9jgva
Agx6x24JHKwcskzXVLgmM7JfFPOx+T1iTUCZa7bniViX1tRN6ktoUvM8qLE1iNsC
AwEAAaOBxDCBwTAdBgNVHQ4EFgQUod8zw88+U0GnaETMqhnhhMkNvMYwdAYDVR0j
BG0wa4AUtBEz8dfiXvdTniAiEE+GBr8fyV6hPaQ7MDkxCzAJBgNVBAYTAkFVMRcw
FQYDVQQKDA5Eb2RneSBCcm90aGVyczERMA8GA1UEAwwIRG9kZ3kgQ0GCFAexpPNH
Z8vlvh4zqHtzdP2a2GPDMBIGA1UdEwEB/wQIMAYBAf8CAQEwCwYDVR0PBAQDAgEG
MAkGA1UdEgQCMAAwDQYJKoZIhvcNAQEFBQADggEBAB0Rj2hftuHyRq2+AKXVRoSc
+/WhgfF4Ky+7qmUrhUX437ZDsbLw6kw6UeeXFw/iCOk35WMyeBu5HSjr+LrmbLmx
Q10l3/Yogy9kRp+unE3xDXRaAJVo5QEldAyDTBcJBgxRj/Itj9E7BTYs4vfHflkW
PI07ZENYhxIWFlC+Xov0wYasg32MaIgujMpE5YpAHO2PxScpeSOKnTPoFSaV0p4I
Oy4DFmiBBsLZ+jlqfQRoRFl/Witr2DkAMJC47UC7szurcC/CfUYQAcp//lMJ90zw
G3YLpESgqJqHnzjnN+3hnH3tyLYRKVFVbfnxGKJVHuqTptQxeTuGMh5ap+38+qk=
-----END CERTIFICATE-----
