Certificate:
    Data:
        Version: 3 (0x2)
        Serial Number:
            2c:08:18:f0:18:3f:8c:19:1f:a0:65:2c:b4:37:26:43:23:5a:60:40
        Signature Algorithm: sha1WithRSAEncryption
        Issuer: C=AU, O=Dodgy Brothers, CN=Dodgy CA
        Validity
            Not Before: Feb  2 19:41:47 2022 GMT
            Not After : Feb  2 19:41:47 2023 GMT
        Subject: C=AU, O=Dodgy Brothers, CN=Brother 1, CN=nextupdate_generalizedtime
        Subject Public Key Info:
            Public Key Algorithm: rsaEncryption
                Public-Key: (2048 bit)
                Modulus:
                    00:be:95:86:fa:71:4c:6a:ea:51:98:50:4b:99:a1:
                    2c:66:15:f3:60:f3:e1:ff:69:fb:ce:48:01:1d:fe:
                    e1:2c:38:b0:e3:bd:8f:4b:48:a7:7e:3a:c6:73:e3:
                    ab:bf:e1:da:6e:96:f5:fe:c3:e4:b4:a8:ad:bc:56:
                    34:d4:96:25:74:27:c3:10:db:35:10:25:1c:8e:4b:
                    81:9b:fb:42:04:7c:6f:3d:e2:38:6c:0e:e4:2e:8e:
                    2a:18:6d:30:cd:67:2a:23:6b:37:cf:05:9f:cc:b7:
                    59:58:7f:ba:c4:0a:3f:8c:a4:ad:cb:98:9c:c0:f2:
                    8f:69:67:0f:c1:4e:33:cf:fc:85:5e:bb:5e:cf:93:
                    b0:cf:d9:f4:52:79:87:b1:f8:4d:15:68:65:d5:b7:
                    19:08:63:7f:5e:b1:34:ad:05:8f:5a:f0:e4:e1:8f:
                    25:f2:5c:5c:61:95:b0:56:2d:31:2b:08:65:79:e5:
                    b1:3b:9d:3e:b9:52:4b:ac:5d:c4:58:66:85:8d:81:
                    b3:04:28:f4:3f:2f:ac:92:01:62:d5:fd:8e:0b:da:
                    02:0c:7a:c7:6e:09:1c:ac:1c:b2:4c:d7:54:b8:26:
                    33:b2:5f:14:f3:b1:f9:3d:62:4d:40:99:6b:b6:e7:
                    89:58:97:d6:d4:4d:ea:4b:68:52:f3:3c:a8:b1:35:
                    88:db
                Exponent: 65537 (0x10001)
        X509v3 extensions:
            X509v3 Subject Key Identifier: 
                A1:DF:33:C3:CF:3E:53:41:A7:68:44:CC:AA:19:E1:84:C9:0D:BC:C6
            X509v3 Authority Key Identifier: 
                keyid:B4:11:33:F1:D7:E2:5E:F7:53:9E:20:22:10:4F:86:06:BF:1F:C9:5E
                DirName:/C=AU/O=Dodgy Brothers/CN=Dodgy CA
                serial:07:B1:A4:F3:47:67:CB:E5:BE:1E:33:A8:7B:73:74:FD:9A:D8:63:C3
            X509v3 Basic Constraints: critical
                CA:TRUE, pathlen:1
            X509v3 Key Usage: 
                Certificate Sign, CRL Sign
            X509v3 Issuer Alternative Name: 
                <EMPTY>

    Signature Algorithm: sha1WithRSAEncryption
    Signature Value:
        4c:bb:1e:c8:a7:65:0f:34:70:b1:97:8e:ad:b9:e5:e6:dd:fd:
        26:69:b3:8a:2c:8f:8d:da:7a:27:b1:7e:71:e6:50:4a:0b:81:
        75:97:43:b0:6d:bc:57:90:28:2f:d8:f3:91:59:64:82:44:2a:
        70:00:db:23:ec:33:f4:1c:b6:a1:b8:30:0e:e6:54:d3:e6:9d:
        25:77:8f:16:e8:d0:20:38:48:7d:5c:b0:7a:35:bb:1b:73:d4:
        aa:c4:ed:b3:60:72:f6:27:30:f9:4c:7d:d3:d7:b5:34:93:33:
        c1:00:13:8b:06:4f:6b:28:a3:11:9b:b2:da:36:3a:be:30:26:
        e3:1a:f0:31:97:97:d4:ca:94:06:12:45:b4:51:11:6b:9d:f3:
        18:c2:1b:a0:64:72:b2:66:95:c5:9d:ae:ba:86:c6:32:df:e8:
        58:5e:56:76:97:f9:ae:3e:9d:84:c6:ea:22:02:e3:30:4c:10:
        5a:70:ee:e1:7e:2e:9d:f7:41:9c:35:bf:98:11:0e:c9:21:99:
        cb:b0:96:3f:ee:c8:4b:82:b5:6f:5e:9c:2e:ac:0f:02:cd:17:
        dc:87:b6:12:ad:19:98:33:f3:e2:3e:0f:4f:81:4f:89:9b:5e:
        3b:dc:ee:28:f4:4e:12:7d:e9:af:63:be:a0:b3:cd:7d:b2:4a:
        11:82:40:4b
-----BEGIN CERTIFICATE-----
MIID6zCCAtOgAwIBAgIULAgY8Bg/jBkfoGUstDcmQyNaYEAwDQYJKoZIhvcNAQEF
BQAwOTELMAkGA1UEBhMCQVUxFzAVBgNVBAoMDkRvZGd5IEJyb3RoZXJzMREwDwYD
VQQDDAhEb2RneSBDQTAeFw0yMjAyMDIxOTQxNDdaFw0yMzAyMDIxOTQxNDdaMF8x
CzAJBgNVBAYTAkFVMRcwFQYDVQQKDA5Eb2RneSBCcm90aGVyczESMBAGA1UEAwwJ
QnJvdGhlciAxMSMwIQYDVQQDDBpuZXh0dXBkYXRlX2dlbmVyYWxpemVkdGltZTCC
ASIwDQYJKoZIhvcNAQEBBQADggEPADCCAQoCggEBAL6VhvpxTGrqUZhQS5mhLGYV
82Dz4f9p+85IAR3+4Sw4sOO9j0tIp346xnPjq7/h2m6W9f7D5LSorbxWNNSWJXQn
wxDbNRAlHI5LgZv7QgR8bz3iOGwO5C6OKhhtMM1nKiNrN88Fn8y3WVh/usQKP4yk
rcuYnMDyj2lnD8FOM8/8hV67Xs+TsM/Z9FJ5h7H4TRVoZdW3GQhjf16xNK0Fj1rw
5OGPJfJcXGGVsFYtMSsIZXnlsTudPrlSS6xdxFhmhY2BswQo9D8vrJIBYtX9jgva
Agx6x24JHKwcskzXVLgmM7JfFPOx+T1iTUCZa7bniViX1tRN6ktoUvM8qLE1iNsC
AwEAAaOBxDCBwTAdBgNVHQ4EFgQUod8zw88+U0GnaETMqhnhhMkNvMYwdAYDVR0j
BG0wa4AUtBEz8dfiXvdTniAiEE+GBr8fyV6hPaQ7MDkxCzAJBgNVBAYTAkFVMRcw
FQYDVQQKDA5Eb2RneSBCcm90aGVyczERMA8GA1UEAwwIRG9kZ3kgQ0GCFAexpPNH
Z8vlvh4zqHtzdP2a2GPDMBIGA1UdEwEB/wQIMAYBAf8CAQEwCwYDVR0PBAQDAgEG
MAkGA1UdEgQCMAAwDQYJKoZIhvcNAQEFBQADggEBAEy7HsinZQ80cLGXjq255ebd
/SZps4osj43aeiexfnHmUEoLgXWXQ7BtvFeQKC/Y85FZZIJEKnAA2yPsM/QctqG4
MA7mVNPmnSV3jxbo0CA4SH1csHo1uxtz1KrE7bNgcvYnMPlMfdPXtTSTM8EAE4sG
T2sooxGbsto2Or4wJuMa8DGXl9TKlAYSRbRREWud8xjCG6BkcrJmlcWdrrqGxjLf
6FheVnaX+a4+nYTG6iIC4zBMEFpw7uF+Lp33QZw1v5gRDskhmcuwlj/uyEuCtW9e
nC6sDwLNF9yHthKtGZgz8+I+D0+BT4mbXjvc7ij0ThJ96a9jvqCzzX2yShGCQEs=
-----END CERTIFICATE-----
