Certificate:
    Data:
        Version: 3 (0x2)
        Serial Number:
            2c:08:18:f0:18:3f:8c:19:1f:a0:65:2c:b4:37:26:43:23:5a:60:3f
        Signature Algorithm: sha1WithRSAEncryption
        Issuer: C=AU, O=Dodgy Brothers, CN=Dodgy CA
        Validity
            Not Before: Feb  2 19:41:47 2022 GMT
            Not After : Feb  2 19:41:47 2023 GMT
        Subject: C=AU, O=Dodgy Brothers, CN=Brother 1, CN=nextupdate_utctime
        Subject Public Key Info:
            Public Key Algorithm: rsaEncryption
                Public-Key: (2048 bit)
                Modulus:
                    00:be:95:86:fa:71:4c:6a:ea:51:98:50:4b:99:a1:
                    2c:66:15:f3:60:f3:e1:ff:69:fb:ce:48:01:1d:fe:
                    e1:2c:38:b0:e3:bd:8f:4b:48:a7:7e:3a:c6:73:e3:
                    ab:bf:e1:da:6e:96:f5:fe:c3:e4:b4:a8:ad:bc:56:
                    34:d4:96:25:74:27:c3:10:db:35:10:25:1c:8e:4b:
                    81:9b:fb:42:04:7c:6f:3d:e2:38:6c:0e:e4:2e:8e:
                    2a:18:6d:30:cd:67:2a:23:6b:37:cf:05:9f:cc:b7:
                    59:58:7f:ba:c4:0a:3f:8c:a4:ad:cb:98:9c:c0:f2:
                    8f:69:67:0f:c1:4e:33:cf:fc:85:5e:bb:5e:cf:93:
                    b0:cf:d9:f4:52:79:87:b1:f8:4d:15:68:65:d5:b7:
                    19:08:63:7f:5e:b1:34:ad:05:8f:5a:f0:e4:e1:8f:
                    25:f2:5c:5c:61:95:b0:56:2d:31:2b:08:65:79:e5:
                    b1:3b:9d:3e:b9:52:4b:ac:5d:c4:58:66:85:8d:81:
                    b3:04:28:f4:3f:2f:ac:92:01:62:d5:fd:8e:0b:da:
                    02:0c:7a:c7:6e:09:1c:ac:1c:b2:4c:d7:54:b8:26:
                    33:b2:5f:14:f3:b1:f9:3d:62:4d:40:99:6b:b6:e7:
                    89:58:97:d6:d4:4d:ea:4b:68:52:f3:3c:a8:b1:35:
                    88:db
                Exponent: 65537 (0x10001)
        X509v3 extensions:
            X509v3 Subject Key Identifier: 
                A1:DF:33:C3:CF:3E:53:41:A7:68:44:CC:AA:19:E1:84:C9:0D:BC:C6
            X509v3 Authority Key Identifier: 
                keyid:B4:11:33:F1:D7:E2:5E:F7:53:9E:20:22:10:4F:86:06:BF:1F:C9:5E
                DirName:/C=AU/O=Dodgy Brothers/CN=Dodgy CA
                serial:07:B1:A4:F3:47:67:CB:E5:BE:1E:33:A8:7B:73:74:FD:9A:D8:63:C3
            X509v3 Basic Constraints: critical
                CA:TRUE, pathlen:1
            X509v3 Key Usage: 
                Certificate Sign, CRL Sign
            X509v3 Issuer Alternative Name: 
                <EMPTY>

    Signature Algorithm: sha1WithRSAEncryption
    Signature Value:
        74:3c:61:92:36:b6:4b:c4:a5:e0:dc:38:a9:99:30:16:ea:5c:
        9a:b1:8e:86:73:a0:78:dd:bd:9c:79:e7:12:02:f0:d7:58:c4:
        63:7b:0f:a7:11:bc:e2:bb:7f:e0:94:12:b9:b5:2c:87:b7:25:
        2d:7b:fe:9a:24:9e:b2:39:e9:f8:5e:fe:e8:3e:2c:d0:1c:bd:
        7b:c4:d3:1b:1d:23:20:45:47:9f:45:2c:0e:86:df:66:69:67:
        b1:1f:8f:15:1e:43:01:ac:e0:7b:e6:05:4f:c1:fd:b9:a9:69:
        3f:dd:c4:fb:5e:d4:b1:c1:ac:57:ac:ed:2c:2e:77:06:24:33:
        0f:a4:47:17:3e:67:c7:1b:7f:48:ec:bc:4f:23:83:56:ab:31:
        c8:bd:3a:9c:04:c0:36:dc:cb:5c:64:a4:a2:d8:ae:10:57:cf:
        93:65:8d:fc:33:ef:0f:d5:29:30:32:d2:13:81:07:e3:31:6e:
        b3:3a:91:a7:43:4a:c2:fb:65:6e:01:39:1b:fa:4e:60:ee:a2:
        39:3f:6c:30:a3:ca:0e:e8:d9:be:f3:46:cb:47:f7:dd:90:b5:
        01:38:07:30:08:ef:65:77:d6:7b:6b:ba:c4:cb:af:5f:e0:e3:
        03:20:0c:d3:58:05:c6:3c:be:23:8d:c3:f8:0d:38:b3:a6:b8:
        c4:07:4f:86
-----BEGIN CERTIFICATE-----
MIID4zCCAsugAwIBAgIULAgY8Bg/jBkfoGUstDcmQyNaYD8wDQYJKoZIhvcNAQEF
BQAwOTELMAkGA1UEBhMCQVUxFzAVBgNVBAoMDkRvZGd5IEJyb3RoZXJzMREwDwYD
VQQDDAhEb2RneSBDQTAeFw0yMjAyMDIxOTQxNDdaFw0yMzAyMDIxOTQxNDdaMFcx
CzAJBgNVBAYTAkFVMRcwFQYDVQQKDA5Eb2RneSBCcm90aGVyczESMBAGA1UEAwwJ
QnJvdGhlciAxMRswGQYDVQQDDBJuZXh0dXBkYXRlX3V0Y3RpbWUwggEiMA0GCSqG
SIb3DQEBAQUAA4IBDwAwggEKAoIBAQC+lYb6cUxq6lGYUEuZoSxmFfNg8+H/afvO
SAEd/uEsOLDjvY9LSKd+OsZz46u/4dpulvX+w+S0qK28VjTUliV0J8MQ2zUQJRyO
S4Gb+0IEfG894jhsDuQujioYbTDNZyojazfPBZ/Mt1lYf7rECj+MpK3LmJzA8o9p
Zw/BTjPP/IVeu17Pk7DP2fRSeYex+E0VaGXVtxkIY39esTStBY9a8OThjyXyXFxh
lbBWLTErCGV55bE7nT65UkusXcRYZoWNgbMEKPQ/L6ySAWLV/Y4L2gIMesduCRys
HLJM11S4JjOyXxTzsfk9Yk1AmWu254lYl9bUTepLaFLzPKixNYjbAgMBAAGjgcQw
gcEwHQYDVR0OBBYEFKHfM8PPPlNBp2hEzKoZ4YTJDbzGMHQGA1UdIwRtMGuAFLQR
M/HX4l73U54gIhBPhga/H8leoT2kOzA5MQswCQYDVQQGEwJBVTEXMBUGA1UECgwO
RG9kZ3kgQnJvdGhlcnMxETAPBgNVBAMMCERvZGd5IENBghQHsaTzR2fL5b4eM6h7
c3T9mthjwzASBgNVHRMBAf8ECDAGAQH/AgEBMAsGA1UdDwQEAwIBBjAJBgNVHRIE
AjAAMA0GCSqGSIb3DQEBBQUAA4IBAQB0PGGSNrZLxKXg3DipmTAW6lyasY6Gc6B4
3b2ceecSAvDXWMRjew+nEbziu3/glBK5tSyHtyUte/6aJJ6yOen4Xv7oPizQHL17
xNMbHSMgRUefRSwOht9maWexH48VHkMBrOB75gVPwf25qWk/3cT7XtSxwaxXrO0s
LncGJDMPpEcXPmfHG39I7LxPI4NWqzHIvTqcBMA23MtcZKSi2K4QV8+TZY38M+8P
1SkwMtITgQfjMW6zOpGnQ0rC+2VuATkb+k5g7qI5P2wwo8oO6Nm+80bLR/fdkLUB
OAcwCO9ld9Z7a7rEy69f4OMDIAzTWAXGPL4jjcP4DTizprjEB0+G
-----END CERTIFICATE-----
